; Function Attrs: nounwind sspstrong uwtable
define dso_local void @tcg_gen_extract2_i32(ptr noundef %0, ptr noundef %1, ptr noundef %2, i32 noundef %3) local_unnamed_addr #2 {
  %5 = icmp ult i32 %3, 33
  tail call void @llvm.assume(i1 %5)
  switch i32 %3, label %28 [
    i32 0, label %6
    i32 32, label %17
  ]

6:                                                ; preds = %4
  %.not.i = icmp eq ptr %0, %1
  br i1 %.not.i, label %tcg_gen_mov_i32.exit, label %7

7:                                                ; preds = %6
  %8 = tail call align 8 ptr @llvm.threadlocal.address.p0(ptr align 8 @tcg_ctx)
  %9 = load ptr, ptr %8, align 8
  %10 = ptrtoint ptr %0 to i64
  %11 = getelementptr inbounds nuw i8, ptr %9, i64 %10
  %12 = ptrtoint ptr %11 to i64
  %13 = ptrtoint ptr %1 to i64
  %14 = getelementptr inbounds nuw i8, ptr %9, i64 %13
  %15 = ptrtoint ptr %14 to i64
  %16 = tail call ptr @tcg_gen_op2(i32 noundef 5, i32 noundef 0, i64 noundef %12, i64 noundef %15)
  br label %tcg_gen_mov_i32.exit

17:                                               ; preds = %4
  %.not.i17 = icmp eq ptr %0, %2
  br i1 %.not.i17, label %tcg_gen_mov_i32.exit, label %18

18:                                               ; preds = %17
  %19 = tail call align 8 ptr @llvm.threadlocal.address.p0(ptr align 8 @tcg_ctx)
  %20 = load ptr, ptr %19, align 8
  %21 = ptrtoint ptr %0 to i64
  %22 = getelementptr inbounds nuw i8, ptr %20, i64 %21
  %23 = ptrtoint ptr %22 to i64
  %24 = ptrtoint ptr %2 to i64
  %25 = getelementptr inbounds nuw i8, ptr %20, i64 %24
  %26 = ptrtoint ptr %25 to i64
  %27 = tail call ptr @tcg_gen_op2(i32 noundef 5, i32 noundef 0, i64 noundef %23, i64 noundef %26)
  br label %tcg_gen_mov_i32.exit

28:                                               ; preds = %4
  %29 = icmp eq ptr %1, %2
  br i1 %29, label %30, label %57

30:                                               ; preds = %28
  %31 = icmp eq i32 %3, 0
  br i1 %31, label %32, label %tcg_gen_rotli_i32.exit.i

32:                                               ; preds = %30
  %.not.i.i = icmp eq ptr %0, %2
  br i1 %.not.i.i, label %tcg_gen_mov_i32.exit, label %33

33:                                               ; preds = %32
  %34 = tail call align 8 ptr @llvm.threadlocal.address.p0(ptr align 8 @tcg_ctx)
  %35 = load ptr, ptr %34, align 8
  %36 = ptrtoint ptr %0 to i64
  %37 = getelementptr inbounds nuw i8, ptr %35, i64 %36
  %38 = ptrtoint ptr %37 to i64
  %39 = ptrtoint ptr %2 to i64
  %40 = getelementptr inbounds nuw i8, ptr %35, i64 %39
  %41 = ptrtoint ptr %40 to i64
  %42 = tail call ptr @tcg_gen_op2(i32 noundef 5, i32 noundef 0, i64 noundef %38, i64 noundef %41)
  br label %tcg_gen_mov_i32.exit

tcg_gen_rotli_i32.exit.i:                         ; preds = %30
  %43 = sub nuw nsw i32 32, %3
  %44 = tail call ptr @tcg_constant_i32(i32 noundef %43) #6
  %45 = tail call align 8 ptr @llvm.threadlocal.address.p0(ptr align 8 @tcg_ctx)
  %46 = load ptr, ptr %45, align 8
  %47 = ptrtoint ptr %0 to i64
  %48 = getelementptr inbounds nuw i8, ptr %46, i64 %47
  %49 = ptrtoint ptr %48 to i64
  %50 = ptrtoint ptr %2 to i64
  %51 = getelementptr inbounds nuw i8, ptr %46, i64 %50
  %52 = ptrtoint ptr %51 to i64
  %53 = ptrtoint ptr %44 to i64
  %54 = getelementptr inbounds nuw i8, ptr %46, i64 %53
  %55 = ptrtoint ptr %54 to i64
  %56 = tail call ptr @tcg_gen_op3(i32 noundef 32, i32 noundef 0, i64 noundef %49, i64 noundef %52, i64 noundef %55)
  br label %tcg_gen_mov_i32.exit

57:                                               ; preds = %28
  %58 = zext nneg i32 %3 to i64
  %59 = tail call align 8 ptr @llvm.threadlocal.address.p0(ptr align 8 @tcg_ctx)
  %60 = load ptr, ptr %59, align 8
  %61 = ptrtoint ptr %0 to i64
  %62 = getelementptr inbounds nuw i8, ptr %60, i64 %61
  %63 = ptrtoint ptr %62 to i64
  %64 = ptrtoint ptr %1 to i64
  %65 = getelementptr inbounds nuw i8, ptr %60, i64 %64
  %66 = ptrtoint ptr %65 to i64
  %67 = ptrtoint ptr %2 to i64
  %68 = getelementptr inbounds nuw i8, ptr %60, i64 %67
  %69 = ptrtoint ptr %68 to i64
  %70 = tail call ptr @tcg_gen_op4(i32 noundef 37, i32 noundef 0, i64 noundef %63, i64 noundef %66, i64 noundef %69, i64 noundef range(i64 1, 4294967296) %58)
  br label %tcg_gen_mov_i32.exit

tcg_gen_mov_i32.exit:                             ; preds = %tcg_gen_rotli_i32.exit.i, %33, %32, %18, %17, %7, %6, %57
  ret void
}